
trippling_avr.elf:     file format elf32-avr

Sections:
Idx Name          Size      VMA       LMA       File off  Algn
  0 .text         000003ce  00000000  00000000  00000074  2**1
                  CONTENTS, ALLOC, LOAD, READONLY, CODE
  1 .data         0000001c  00800060  000003ce  00000442  2**0
                  CONTENTS, ALLOC, LOAD, DATA
  2 .comment      00000030  00000000  00000000  0000045e  2**0
                  CONTENTS, READONLY
  3 .note.gnu.avr.deviceinfo 0000003c  00000000  00000000  00000490  2**2
                  CONTENTS, READONLY
  4 .debug_aranges 00000080  00000000  00000000  000004d0  2**3
                  CONTENTS, READONLY, DEBUGGING
  5 .debug_info   000006cd  00000000  00000000  00000550  2**0
                  CONTENTS, READONLY, DEBUGGING
  6 .debug_abbrev 00000438  00000000  00000000  00000c1d  2**0
                  CONTENTS, READONLY, DEBUGGING
  7 .debug_line   000002fc  00000000  00000000  00001055  2**0
                  CONTENTS, READONLY, DEBUGGING
  8 .debug_str    00000169  00000000  00000000  00001351  2**0
                  CONTENTS, READONLY, DEBUGGING

Disassembly of section .text:

00000000 <__vectors>:
   0:	0e c0       	rjmp	.+28     	; 0x1e <__ctors_end>
   2:	28 c0       	rjmp	.+80     	; 0x54 <__bad_interrupt>
   4:	5f c0       	rjmp	.+190    	; 0xc4 <__vector_2>
   6:	53 c0       	rjmp	.+166    	; 0xae <__vector_3>
   8:	25 c0       	rjmp	.+74     	; 0x54 <__bad_interrupt>
   a:	24 c0       	rjmp	.+72     	; 0x54 <__bad_interrupt>
   c:	23 c0       	rjmp	.+70     	; 0x54 <__bad_interrupt>
   e:	22 c0       	rjmp	.+68     	; 0x54 <__bad_interrupt>
  10:	21 c0       	rjmp	.+66     	; 0x54 <__bad_interrupt>
  12:	62 c0       	rjmp	.+196    	; 0xd8 <__vector_9>
  14:	1f c0       	rjmp	.+62     	; 0x54 <__bad_interrupt>
  16:	1e c0       	rjmp	.+60     	; 0x54 <__bad_interrupt>
  18:	1d c0       	rjmp	.+58     	; 0x54 <__bad_interrupt>
  1a:	1c c0       	rjmp	.+56     	; 0x54 <__bad_interrupt>
  1c:	1b c0       	rjmp	.+54     	; 0x54 <__bad_interrupt>

0000001e <__ctors_end>:
  1e:	11 24       	eor	r1, r1
  20:	1f be       	out	0x3f, r1	; 63
  22:	cf e5       	ldi	r28, 0x5F	; 95
  24:	d2 e0       	ldi	r29, 0x02	; 2
  26:	de bf       	out	0x3e, r29	; 62
  28:	cd bf       	out	0x3d, r28	; 61

0000002a <__do_copy_data>:
  2a:	10 e0       	ldi	r17, 0x00	; 0
  2c:	a0 e6       	ldi	r26, 0x60	; 96
  2e:	b0 e0       	ldi	r27, 0x00	; 0
  30:	ee ec       	ldi	r30, 0xCE	; 206
  32:	f3 e0       	ldi	r31, 0x03	; 3
  34:	02 c0       	rjmp	.+4      	; 0x3a <__do_copy_data+0x10>
  36:	05 90       	lpm	r0, Z+
  38:	0d 92       	st	X+, r0
  3a:	ac 37       	cpi	r26, 0x7C	; 124
  3c:	b1 07       	cpc	r27, r17
  3e:	d9 f7       	brne	.-10     	; 0x36 <__do_copy_data+0xc>

00000040 <__do_clear_bss>:
  40:	20 e0       	ldi	r18, 0x00	; 0
  42:	ac e7       	ldi	r26, 0x7C	; 124
  44:	b0 e0       	ldi	r27, 0x00	; 0
  46:	01 c0       	rjmp	.+2      	; 0x4a <.do_clear_bss_start>

00000048 <.do_clear_bss_loop>:
  48:	1d 92       	st	X+, r1

0000004a <.do_clear_bss_start>:
  4a:	ac 37       	cpi	r26, 0x7C	; 124
  4c:	b2 07       	cpc	r27, r18
  4e:	e1 f7       	brne	.-8      	; 0x48 <.do_clear_bss_loop>
  50:	0f d0       	rcall	.+30     	; 0x70 <main>
  52:	bb c1       	rjmp	.+886    	; 0x3ca <_exit>

00000054 <__bad_interrupt>:
  54:	d5 cf       	rjmp	.-86     	; 0x0 <__vectors>

00000056 <initGpioPin>:
  56:	bc 9a       	sbi	0x17, 4	; 23
  58:	c4 9a       	sbi	0x18, 4	; 24
  5a:	c4 98       	cbi	0x18, 4	; 24
  5c:	bb 9a       	sbi	0x17, 3	; 23
  5e:	c3 9a       	sbi	0x18, 3	; 24
  60:	c3 98       	cbi	0x18, 3	; 24
  62:	ba 98       	cbi	0x17, 2	; 23
  64:	c2 9a       	sbi	0x18, 2	; 24
  66:	b9 98       	cbi	0x17, 1	; 23
  68:	c1 9a       	sbi	0x18, 1	; 24
  6a:	b8 98       	cbi	0x17, 0	; 23
  6c:	c0 9a       	sbi	0x18, 0	; 24
  6e:	08 95       	ret

00000070 <main>:
  70:	14 be       	out	0x34, r1	; 52
  72:	0f b6       	in	r0, 0x3f	; 63
  74:	f8 94       	cli
  76:	a8 95       	wdr
  78:	81 b5       	in	r24, 0x21	; 33
  7a:	88 61       	ori	r24, 0x18	; 24
  7c:	81 bd       	out	0x21, r24	; 33
  7e:	11 bc       	out	0x21, r1	; 33
  80:	0f be       	out	0x3f, r0	; 63
  82:	e9 df       	rcall	.-46     	; 0x56 <initGpioPin>
  84:	f6 d0       	rcall	.+492    	; 0x272 <ReadTime>
  86:	0b d1       	rcall	.+534    	; 0x29e <CheckSetButton>
  88:	a8 95       	wdr
  8a:	9e e0       	ldi	r25, 0x0E	; 14
  8c:	88 e1       	ldi	r24, 0x18	; 24
  8e:	0f b6       	in	r0, 0x3f	; 63
  90:	f8 94       	cli
  92:	a8 95       	wdr
  94:	81 bd       	out	0x21, r24	; 33
  96:	0f be       	out	0x3f, r0	; 63
  98:	91 bd       	out	0x21, r25	; 33
  9a:	dd d0       	rcall	.+442    	; 0x256 <CheckButton>
  9c:	6e d0       	rcall	.+220    	; 0x17a <Flashing>
  9e:	8f e0       	ldi	r24, 0x0F	; 15
  a0:	97 e2       	ldi	r25, 0x27	; 39
  a2:	01 97       	sbiw	r24, 0x01	; 1
  a4:	f1 f7       	brne	.-4      	; 0xa2 <main+0x32>
  a6:	00 c0       	rjmp	.+0      	; 0xa8 <main+0x38>
  a8:	00 00       	nop
  aa:	a8 95       	wdr
  ac:	f6 cf       	rjmp	.-20     	; 0x9a <main+0x2a>

000000ae <__vector_3>:
  ae:	1f 92       	push	r1
  b0:	0f 92       	push	r0
  b2:	0f b6       	in	r0, 0x3f	; 63
  b4:	0f 92       	push	r0
  b6:	11 24       	eor	r1, r1
  b8:	1f bc       	out	0x2f, r1	; 47
  ba:	0f 90       	pop	r0
  bc:	0f be       	out	0x3f, r0	; 63
  be:	0f 90       	pop	r0
  c0:	1f 90       	pop	r1
  c2:	18 95       	reti

000000c4 <__vector_2>:
  c4:	1f 92       	push	r1
  c6:	0f 92       	push	r0
  c8:	0f b6       	in	r0, 0x3f	; 63
  ca:	0f 92       	push	r0
  cc:	11 24       	eor	r1, r1
  ce:	0f 90       	pop	r0
  d0:	0f be       	out	0x3f, r0	; 63
  d2:	0f 90       	pop	r0
  d4:	1f 90       	pop	r1
  d6:	18 95       	reti

000000d8 <__vector_9>:
  d8:	1f 92       	push	r1
  da:	0f 92       	push	r0
  dc:	0f b6       	in	r0, 0x3f	; 63
  de:	0f 92       	push	r0
  e0:	11 24       	eor	r1, r1
  e2:	0f 90       	pop	r0
  e4:	0f be       	out	0x3f, r0	; 63
  e6:	0f 90       	pop	r0
  e8:	1f 90       	pop	r1
  ea:	18 95       	reti

000000ec <FlashingLed>:
  ec:	fc 01       	movw	r30, r24
  ee:	44 81       	ldd	r20, Z+4	; 0x04
  f0:	41 30       	cpi	r20, 0x01	; 1
  f2:	09 f0       	breq	.+2      	; 0xf6 <FlashingLed+0xa>
  f4:	41 c0       	rjmp	.+130    	; 0x178 <FlashingLed+0x8c>
  f6:	80 81       	ld	r24, Z
  f8:	90 91 60 00 	lds	r25, 0x0060	; 0x800060 <BlinkIntervalValue>
  fc:	89 17       	cp	r24, r25
  fe:	e0 f5       	brcc	.+120    	; 0x178 <FlashingLed+0x8c>
 100:	21 81       	ldd	r18, Z+1	; 0x01
 102:	32 81       	ldd	r19, Z+2	; 0x02
 104:	2f 5f       	subi	r18, 0xFF	; 255
 106:	3f 4f       	sbci	r19, 0xFF	; 255
 108:	32 83       	std	Z+2, r19	; 0x02
 10a:	21 83       	std	Z+1, r18	; 0x01
 10c:	53 81       	ldd	r21, Z+3	; 0x03
 10e:	51 30       	cpi	r21, 0x01	; 1
 110:	a9 f4       	brne	.+42     	; 0x13c <FlashingLed+0x50>
 112:	80 91 61 00 	lds	r24, 0x0061	; 0x800061 <TimeForFlashing>
 116:	90 91 62 00 	lds	r25, 0x0062	; 0x800062 <TimeForFlashing+0x1>
 11a:	82 17       	cp	r24, r18
 11c:	93 07       	cpc	r25, r19
 11e:	60 f5       	brcc	.+88     	; 0x178 <FlashingLed+0x8c>
 120:	12 82       	std	Z+2, r1	; 0x02
 122:	11 82       	std	Z+1, r1	; 0x01
 124:	13 82       	std	Z+3, r1	; 0x03
 126:	28 b3       	in	r18, 0x18	; 24
 128:	81 e0       	ldi	r24, 0x01	; 1
 12a:	90 e0       	ldi	r25, 0x00	; 0
 12c:	00 84       	ldd	r0, Z+8	; 0x08
 12e:	02 c0       	rjmp	.+4      	; 0x134 <FlashingLed+0x48>
 130:	88 0f       	add	r24, r24
 132:	99 1f       	adc	r25, r25
 134:	0a 94       	dec	r0
 136:	e2 f7       	brpl	.-8      	; 0x130 <FlashingLed+0x44>
 138:	82 2b       	or	r24, r18
 13a:	1d c0       	rjmp	.+58     	; 0x176 <FlashingLed+0x8a>
 13c:	51 11       	cpse	r21, r1
 13e:	1c c0       	rjmp	.+56     	; 0x178 <FlashingLed+0x8c>
 140:	60 91 61 00 	lds	r22, 0x0061	; 0x800061 <TimeForFlashing>
 144:	70 91 62 00 	lds	r23, 0x0062	; 0x800062 <TimeForFlashing+0x1>
 148:	62 17       	cp	r22, r18
 14a:	73 07       	cpc	r23, r19
 14c:	a8 f4       	brcc	.+42     	; 0x178 <FlashingLed+0x8c>
 14e:	12 82       	std	Z+2, r1	; 0x02
 150:	11 82       	std	Z+1, r1	; 0x01
 152:	43 83       	std	Z+3, r20	; 0x03
 154:	8f 5f       	subi	r24, 0xFF	; 255
 156:	80 83       	st	Z, r24
 158:	98 13       	cpse	r25, r24
 15a:	02 c0       	rjmp	.+4      	; 0x160 <FlashingLed+0x74>
 15c:	14 82       	std	Z+4, r1	; 0x04
 15e:	10 82       	st	Z, r1
 160:	28 b3       	in	r18, 0x18	; 24
 162:	81 e0       	ldi	r24, 0x01	; 1
 164:	90 e0       	ldi	r25, 0x00	; 0
 166:	00 84       	ldd	r0, Z+8	; 0x08
 168:	02 c0       	rjmp	.+4      	; 0x16e <FlashingLed+0x82>
 16a:	88 0f       	add	r24, r24
 16c:	99 1f       	adc	r25, r25
 16e:	0a 94       	dec	r0
 170:	e2 f7       	brpl	.-8      	; 0x16a <FlashingLed+0x7e>
 172:	80 95       	com	r24
 174:	82 23       	and	r24, r18
 176:	88 bb       	out	0x18, r24	; 24
 178:	08 95       	ret

0000017a <Flashing>:
 17a:	8f e6       	ldi	r24, 0x6F	; 111
 17c:	90 e0       	ldi	r25, 0x00	; 0
 17e:	b6 df       	rcall	.-148    	; 0xec <FlashingLed>
 180:	85 e6       	ldi	r24, 0x65	; 101
 182:	90 e0       	ldi	r25, 0x00	; 0
 184:	b3 cf       	rjmp	.-154    	; 0xec <FlashingLed>

00000186 <CheckInput>:
 186:	fc 01       	movw	r30, r24
 188:	86 b3       	in	r24, 0x16	; 22
 18a:	90 e0       	ldi	r25, 0x00	; 0
 18c:	01 84       	ldd	r0, Z+9	; 0x09
 18e:	02 c0       	rjmp	.+4      	; 0x194 <CheckInput+0xe>
 190:	95 95       	asr	r25
 192:	87 95       	ror	r24
 194:	0a 94       	dec	r0
 196:	e2 f7       	brpl	.-8      	; 0x190 <CheckInput+0xa>
 198:	80 fd       	sbrc	r24, 0
 19a:	08 c0       	rjmp	.+16     	; 0x1ac <CheckInput+0x26>
 19c:	81 e0       	ldi	r24, 0x01	; 1
 19e:	87 83       	std	Z+7, r24	; 0x07
 1a0:	85 81       	ldd	r24, Z+5	; 0x05
 1a2:	96 81       	ldd	r25, Z+6	; 0x06
 1a4:	01 96       	adiw	r24, 0x01	; 1
 1a6:	96 83       	std	Z+6, r25	; 0x06
 1a8:	85 83       	std	Z+5, r24	; 0x05
 1aa:	01 c0       	rjmp	.+2      	; 0x1ae <CheckInput+0x28>
 1ac:	17 82       	std	Z+7, r1	; 0x07
 1ae:	84 81       	ldd	r24, Z+4	; 0x04
 1b0:	81 11       	cpse	r24, r1
 1b2:	21 c0       	rjmp	.+66     	; 0x1f6 <CheckInput+0x70>
 1b4:	87 81       	ldd	r24, Z+7	; 0x07
 1b6:	81 11       	cpse	r24, r1
 1b8:	1e c0       	rjmp	.+60     	; 0x1f6 <CheckInput+0x70>
 1ba:	85 81       	ldd	r24, Z+5	; 0x05
 1bc:	96 81       	ldd	r25, Z+6	; 0x06
 1be:	40 91 79 00 	lds	r20, 0x0079	; 0x800079 <TimeMinimalForEnableAutoFlashing>
 1c2:	50 91 7a 00 	lds	r21, 0x007A	; 0x80007a <TimeMinimalForEnableAutoFlashing+0x1>
 1c6:	20 91 63 00 	lds	r18, 0x0063	; 0x800063 <TimeForEnableAutoFlashing>
 1ca:	30 91 64 00 	lds	r19, 0x0064	; 0x800064 <TimeForEnableAutoFlashing+0x1>
 1ce:	48 17       	cp	r20, r24
 1d0:	59 07       	cpc	r21, r25
 1d2:	60 f4       	brcc	.+24     	; 0x1ec <CheckInput+0x66>
 1d4:	82 17       	cp	r24, r18
 1d6:	93 07       	cpc	r25, r19
 1d8:	48 f4       	brcc	.+18     	; 0x1ec <CheckInput+0x66>
 1da:	81 e0       	ldi	r24, 0x01	; 1
 1dc:	84 83       	std	Z+4, r24	; 0x04
 1de:	83 83       	std	Z+3, r24	; 0x03
 1e0:	16 82       	std	Z+6, r1	; 0x06
 1e2:	15 82       	std	Z+5, r1	; 0x05
 1e4:	10 82       	st	Z, r1
 1e6:	12 82       	std	Z+2, r1	; 0x02
 1e8:	11 82       	std	Z+1, r1	; 0x01
 1ea:	08 95       	ret
 1ec:	28 17       	cp	r18, r24
 1ee:	39 07       	cpc	r19, r25
 1f0:	10 f4       	brcc	.+4      	; 0x1f6 <CheckInput+0x70>
 1f2:	16 82       	std	Z+6, r1	; 0x06
 1f4:	15 82       	std	Z+5, r1	; 0x05
 1f6:	08 95       	ret

000001f8 <SafetyCheck>:
 1f8:	cf 93       	push	r28
 1fa:	b2 99       	sbic	0x16, 2	; 22
 1fc:	11 c0       	rjmp	.+34     	; 0x220 <SafetyCheck+0x28>
 1fe:	c0 91 69 00 	lds	r28, 0x0069	; 0x800069 <DirectionalLightRight+0x4>
 202:	c1 30       	cpi	r28, 0x01	; 1
 204:	69 f4       	brne	.+26     	; 0x220 <SafetyCheck+0x28>
 206:	81 d0       	rcall	.+258    	; 0x30a <ClearStruct>
 208:	c3 98       	cbi	0x18, 3	; 24
 20a:	c4 98       	cbi	0x18, 4	; 24
 20c:	2f ef       	ldi	r18, 0xFF	; 255
 20e:	84 e3       	ldi	r24, 0x34	; 52
 210:	9c e0       	ldi	r25, 0x0C	; 12
 212:	21 50       	subi	r18, 0x01	; 1
 214:	80 40       	sbci	r24, 0x00	; 0
 216:	90 40       	sbci	r25, 0x00	; 0
 218:	e1 f7       	brne	.-8      	; 0x212 <SafetyCheck+0x1a>
 21a:	00 c0       	rjmp	.+0      	; 0x21c <SafetyCheck+0x24>
 21c:	00 00       	nop
 21e:	18 c0       	rjmp	.+48     	; 0x250 <SafetyCheck+0x58>
 220:	86 b3       	in	r24, 0x16	; 22
 222:	c8 2f       	mov	r28, r24
 224:	c2 70       	andi	r28, 0x02	; 2
 226:	81 fd       	sbrc	r24, 1
 228:	12 c0       	rjmp	.+36     	; 0x24e <SafetyCheck+0x56>
 22a:	80 91 73 00 	lds	r24, 0x0073	; 0x800073 <DirectionalLightLeft+0x4>
 22e:	81 30       	cpi	r24, 0x01	; 1
 230:	79 f4       	brne	.+30     	; 0x250 <SafetyCheck+0x58>
 232:	6b d0       	rcall	.+214    	; 0x30a <ClearStruct>
 234:	c4 98       	cbi	0x18, 4	; 24
 236:	c3 98       	cbi	0x18, 3	; 24
 238:	2f ef       	ldi	r18, 0xFF	; 255
 23a:	84 e3       	ldi	r24, 0x34	; 52
 23c:	9c e0       	ldi	r25, 0x0C	; 12
 23e:	21 50       	subi	r18, 0x01	; 1
 240:	80 40       	sbci	r24, 0x00	; 0
 242:	90 40       	sbci	r25, 0x00	; 0
 244:	e1 f7       	brne	.-8      	; 0x23e <SafetyCheck+0x46>
 246:	00 c0       	rjmp	.+0      	; 0x248 <SafetyCheck+0x50>
 248:	00 00       	nop
 24a:	c1 e0       	ldi	r28, 0x01	; 1
 24c:	01 c0       	rjmp	.+2      	; 0x250 <SafetyCheck+0x58>
 24e:	c0 e0       	ldi	r28, 0x00	; 0
 250:	8c 2f       	mov	r24, r28
 252:	cf 91       	pop	r28
 254:	08 95       	ret

00000256 <CheckButton>:
 256:	d0 df       	rcall	.-96     	; 0x1f8 <SafetyCheck>
 258:	81 11       	cpse	r24, r1
 25a:	06 c0       	rjmp	.+12     	; 0x268 <__stack+0x9>
 25c:	8f e6       	ldi	r24, 0x6F	; 111
 25e:	90 e0       	ldi	r25, 0x00	; 0
 260:	92 df       	rcall	.-220    	; 0x186 <CheckInput>
 262:	85 e6       	ldi	r24, 0x65	; 101
 264:	90 e0       	ldi	r25, 0x00	; 0
 266:	8f cf       	rjmp	.-226    	; 0x186 <CheckInput>
 268:	08 95       	ret

0000026a <WriteTime>:
 26a:	bc 01       	movw	r22, r24
 26c:	80 e0       	ldi	r24, 0x00	; 0
 26e:	90 e0       	ldi	r25, 0x00	; 0
 270:	8b c0       	rjmp	.+278    	; 0x388 <eeprom_write_word>

00000272 <ReadTime>:
 272:	80 e0       	ldi	r24, 0x00	; 0
 274:	90 e0       	ldi	r25, 0x00	; 0
 276:	83 d0       	rcall	.+262    	; 0x37e <eeprom_read_word>
 278:	90 93 62 00 	sts	0x0062, r25	; 0x800062 <TimeForFlashing+0x1>
 27c:	80 93 61 00 	sts	0x0061, r24	; 0x800061 <TimeForFlashing>
 280:	65 e0       	ldi	r22, 0x05	; 5
 282:	70 e0       	ldi	r23, 0x00	; 0
 284:	57 d0       	rcall	.+174    	; 0x334 <__mulhi3>
 286:	64 e6       	ldi	r22, 0x64	; 100
 288:	70 e0       	ldi	r23, 0x00	; 0
 28a:	65 d0       	rcall	.+202    	; 0x356 <__udivmodhi4>
 28c:	cb 01       	movw	r24, r22
 28e:	60 e5       	ldi	r22, 0x50	; 80
 290:	70 e0       	ldi	r23, 0x00	; 0
 292:	50 d0       	rcall	.+160    	; 0x334 <__mulhi3>
 294:	90 93 64 00 	sts	0x0064, r25	; 0x800064 <TimeForEnableAutoFlashing+0x1>
 298:	80 93 63 00 	sts	0x0063, r24	; 0x800063 <TimeForEnableAutoFlashing>
 29c:	08 95       	ret

0000029e <CheckSetButton>:
 29e:	8a e0       	ldi	r24, 0x0A	; 10
 2a0:	b0 9b       	sbis	0x16, 0	; 22
 2a2:	02 c0       	rjmp	.+4      	; 0x2a8 <CheckSetButton+0xa>
 2a4:	80 e0       	ldi	r24, 0x00	; 0
 2a6:	08 95       	ret
 2a8:	2f e7       	ldi	r18, 0x7F	; 127
 2aa:	38 e3       	ldi	r19, 0x38	; 56
 2ac:	91 e0       	ldi	r25, 0x01	; 1
 2ae:	21 50       	subi	r18, 0x01	; 1
 2b0:	30 40       	sbci	r19, 0x00	; 0
 2b2:	90 40       	sbci	r25, 0x00	; 0
 2b4:	e1 f7       	brne	.-8      	; 0x2ae <CheckSetButton+0x10>
 2b6:	00 c0       	rjmp	.+0      	; 0x2b8 <CheckSetButton+0x1a>
 2b8:	00 00       	nop
 2ba:	81 50       	subi	r24, 0x01	; 1
 2bc:	89 f7       	brne	.-30     	; 0x2a0 <CheckSetButton+0x2>
 2be:	b0 99       	sbic	0x16, 0	; 22
 2c0:	f1 cf       	rjmp	.-30     	; 0x2a4 <CheckSetButton+0x6>
 2c2:	26 b3       	in	r18, 0x16	; 22
 2c4:	24 70       	andi	r18, 0x04	; 4
 2c6:	60 e0       	ldi	r22, 0x00	; 0
 2c8:	80 e0       	ldi	r24, 0x00	; 0
 2ca:	90 e0       	ldi	r25, 0x00	; 0
 2cc:	30 e0       	ldi	r19, 0x00	; 0
 2ce:	46 b3       	in	r20, 0x16	; 22
 2d0:	44 70       	andi	r20, 0x04	; 4
 2d2:	50 e0       	ldi	r21, 0x00	; 0
 2d4:	24 17       	cp	r18, r20
 2d6:	35 07       	cpc	r19, r21
 2d8:	41 f0       	breq	.+16     	; 0x2ea <CheckSetButton+0x4c>
 2da:	01 96       	adiw	r24, 0x01	; 1
 2dc:	ef e0       	ldi	r30, 0x0F	; 15
 2de:	f7 e2       	ldi	r31, 0x27	; 39
 2e0:	31 97       	sbiw	r30, 0x01	; 1
 2e2:	f1 f7       	brne	.-4      	; 0x2e0 <CheckSetButton+0x42>
 2e4:	00 c0       	rjmp	.+0      	; 0x2e6 <CheckSetButton+0x48>
 2e6:	00 00       	nop
 2e8:	04 c0       	rjmp	.+8      	; 0x2f2 <CheckSetButton+0x54>
 2ea:	61 30       	cpi	r22, 0x01	; 1
 2ec:	11 f0       	breq	.+4      	; 0x2f2 <CheckSetButton+0x54>
 2ee:	60 e0       	ldi	r22, 0x00	; 0
 2f0:	ee cf       	rjmp	.-36     	; 0x2ce <CheckSetButton+0x30>
 2f2:	46 b3       	in	r20, 0x16	; 22
 2f4:	44 70       	andi	r20, 0x04	; 4
 2f6:	50 e0       	ldi	r21, 0x00	; 0
 2f8:	24 17       	cp	r18, r20
 2fa:	35 07       	cpc	r19, r21
 2fc:	11 f0       	breq	.+4      	; 0x302 <CheckSetButton+0x64>
 2fe:	61 e0       	ldi	r22, 0x01	; 1
 300:	e6 cf       	rjmp	.-52     	; 0x2ce <CheckSetButton+0x30>
 302:	b3 df       	rcall	.-154    	; 0x26a <WriteTime>
 304:	b6 df       	rcall	.-148    	; 0x272 <ReadTime>
 306:	81 e0       	ldi	r24, 0x01	; 1
 308:	08 95       	ret

0000030a <ClearStruct>:
 30a:	ef e6       	ldi	r30, 0x6F	; 111
 30c:	f0 e0       	ldi	r31, 0x00	; 0
 30e:	12 82       	std	Z+2, r1	; 0x02
 310:	11 82       	std	Z+1, r1	; 0x01
 312:	13 82       	std	Z+3, r1	; 0x03
 314:	14 82       	std	Z+4, r1	; 0x04
 316:	10 82       	st	Z, r1
 318:	17 82       	std	Z+7, r1	; 0x07
 31a:	16 82       	std	Z+6, r1	; 0x06
 31c:	15 82       	std	Z+5, r1	; 0x05
 31e:	e5 e6       	ldi	r30, 0x65	; 101
 320:	f0 e0       	ldi	r31, 0x00	; 0
 322:	12 82       	std	Z+2, r1	; 0x02
 324:	11 82       	std	Z+1, r1	; 0x01
 326:	13 82       	std	Z+3, r1	; 0x03
 328:	14 82       	std	Z+4, r1	; 0x04
 32a:	10 82       	st	Z, r1
 32c:	17 82       	std	Z+7, r1	; 0x07
 32e:	16 82       	std	Z+6, r1	; 0x06
 330:	15 82       	std	Z+5, r1	; 0x05
 332:	08 95       	ret

00000334 <__mulhi3>:
 334:	00 24       	eor	r0, r0
 336:	55 27       	eor	r21, r21
 338:	04 c0       	rjmp	.+8      	; 0x342 <__mulhi3+0xe>
 33a:	08 0e       	add	r0, r24
 33c:	59 1f       	adc	r21, r25
 33e:	88 0f       	add	r24, r24
 340:	99 1f       	adc	r25, r25
 342:	00 97       	sbiw	r24, 0x00	; 0
 344:	29 f0       	breq	.+10     	; 0x350 <__mulhi3+0x1c>
 346:	76 95       	lsr	r23
 348:	67 95       	ror	r22
 34a:	b8 f3       	brcs	.-18     	; 0x33a <__mulhi3+0x6>
 34c:	71 05       	cpc	r23, r1
 34e:	b9 f7       	brne	.-18     	; 0x33e <__mulhi3+0xa>
 350:	80 2d       	mov	r24, r0
 352:	95 2f       	mov	r25, r21
 354:	08 95       	ret

00000356 <__udivmodhi4>:
 356:	aa 1b       	sub	r26, r26
 358:	bb 1b       	sub	r27, r27
 35a:	51 e1       	ldi	r21, 0x11	; 17
 35c:	07 c0       	rjmp	.+14     	; 0x36c <__udivmodhi4_ep>

0000035e <__udivmodhi4_loop>:
 35e:	aa 1f       	adc	r26, r26
 360:	bb 1f       	adc	r27, r27
 362:	a6 17       	cp	r26, r22
 364:	b7 07       	cpc	r27, r23
 366:	10 f0       	brcs	.+4      	; 0x36c <__udivmodhi4_ep>
 368:	a6 1b       	sub	r26, r22
 36a:	b7 0b       	sbc	r27, r23

0000036c <__udivmodhi4_ep>:
 36c:	88 1f       	adc	r24, r24
 36e:	99 1f       	adc	r25, r25
 370:	5a 95       	dec	r21
 372:	a9 f7       	brne	.-22     	; 0x35e <__udivmodhi4_loop>
 374:	80 95       	com	r24
 376:	90 95       	com	r25
 378:	bc 01       	movw	r22, r24
 37a:	cd 01       	movw	r24, r26
 37c:	08 95       	ret

0000037e <eeprom_read_word>:
 37e:	a8 e1       	ldi	r26, 0x18	; 24
 380:	b0 e0       	ldi	r27, 0x00	; 0
 382:	42 e0       	ldi	r20, 0x02	; 2
 384:	50 e0       	ldi	r21, 0x00	; 0
 386:	05 c0       	rjmp	.+10     	; 0x392 <eeprom_read_blraw>

00000388 <eeprom_write_word>:
 388:	12 d0       	rcall	.+36     	; 0x3ae <eeprom_write_byte>
 38a:	27 2f       	mov	r18, r23
 38c:	11 c0       	rjmp	.+34     	; 0x3b0 <eeprom_write_r18>

0000038e <eeprom_read_block>:
 38e:	dc 01       	movw	r26, r24
 390:	cb 01       	movw	r24, r22

00000392 <eeprom_read_blraw>:
 392:	fc 01       	movw	r30, r24
 394:	e1 99       	sbic	0x1c, 1	; 28
 396:	fe cf       	rjmp	.-4      	; 0x394 <eeprom_read_blraw+0x2>
 398:	06 c0       	rjmp	.+12     	; 0x3a6 <eeprom_read_blraw+0x14>
 39a:	ff bb       	out	0x1f, r31	; 31
 39c:	ee bb       	out	0x1e, r30	; 30
 39e:	e0 9a       	sbi	0x1c, 0	; 28
 3a0:	31 96       	adiw	r30, 0x01	; 1
 3a2:	0d b2       	in	r0, 0x1d	; 29
 3a4:	0d 92       	st	X+, r0
 3a6:	41 50       	subi	r20, 0x01	; 1
 3a8:	50 40       	sbci	r21, 0x00	; 0
 3aa:	b8 f7       	brcc	.-18     	; 0x39a <eeprom_read_blraw+0x8>
 3ac:	08 95       	ret

000003ae <eeprom_write_byte>:
 3ae:	26 2f       	mov	r18, r22

000003b0 <eeprom_write_r18>:
 3b0:	e1 99       	sbic	0x1c, 1	; 28
 3b2:	fe cf       	rjmp	.-4      	; 0x3b0 <eeprom_write_r18>
 3b4:	1c ba       	out	0x1c, r1	; 28
 3b6:	9f bb       	out	0x1f, r25	; 31
 3b8:	8e bb       	out	0x1e, r24	; 30
 3ba:	2d bb       	out	0x1d, r18	; 29
 3bc:	0f b6       	in	r0, 0x3f	; 63
 3be:	f8 94       	cli
 3c0:	e2 9a       	sbi	0x1c, 2	; 28
 3c2:	e1 9a       	sbi	0x1c, 1	; 28
 3c4:	0f be       	out	0x3f, r0	; 63
 3c6:	01 96       	adiw	r24, 0x01	; 1
 3c8:	08 95       	ret

000003ca <_exit>:
 3ca:	f8 94       	cli

000003cc <__stop_program>:
 3cc:	ff cf       	rjmp	.-2      	; 0x3cc <__stop_program>
